target datalayout = "e-m:e-p270:32:32-p271:32:32-p272:64:64-i64:64-i128:128-f80:128-n8:16:32:64-S128"
target triple = "x86_64-unknown-linux-gnu"

%"class.std::__cxx11::basic_string" = type { %"struct.std::__cxx11::basic_string<char>::_Alloc_hider", i64, %union.anon.0 }
%"struct.std::__cxx11::basic_string<char>::_Alloc_hider" = type { ptr }
%union.anon.0 = type { i64, [8 x i8] }
%struct.MyIterator = type { ptr }
%"struct.nlohmann::json_abi_v3_11_3::detail::position_t" = type { i64, i64, i64 }
%"class.std::vector" = type { %"struct.std::_Vector_base" }
%"struct.std::_Vector_base" = type { %"struct.std::_Vector_base<char, std::allocator<char>>::_Vector_impl" }
%"struct.std::_Vector_base<char, std::allocator<char>>::_Vector_impl" = type { %"struct.std::_Vector_base<char, std::allocator<char>>::_Vector_impl_data" }
%"struct.std::_Vector_base<char, std::allocator<char>>::_Vector_impl_data" = type { ptr, ptr, ptr }
%"class.std::initializer_list.61" = type { ptr, i64 }
%"class.nlohmann::json_abi_v3_11_3::detail::lexer.151" = type <{ %"class.nlohmann::json_abi_v3_11_3::detail::iterator_input_adapter.152", i8, [3 x i8], i32, i8, [7 x i8], %"struct.nlohmann::json_abi_v3_11_3::detail::position_t", %"class.std::vector", %"class.std::__cxx11::basic_string", ptr, i64, i64, double, i32, [4 x i8] }>
%"class.nlohmann::json_abi_v3_11_3::detail::iterator_input_adapter.152" = type { %struct.MyIterator, %struct.MyIterator }

; Function Attrs: mustprogress nounwind uwtable
define linkonce_odr dso_local noundef i64 @_ZNKSt16initializer_listIjE4sizeEv(ptr noundef nonnull align 8 dereferenceable(16) %this) #1 comdat align 2 {
entry:
  %this.addr = alloca ptr, align 8
  store ptr %this, ptr %this.addr, align 8
  %this1 = load ptr, ptr %this.addr, align 8
  %_M_len = getelementptr inbounds %"class.std::initializer_list.61", ptr %this1, i32 0, i32 1
  %0 = load i64, ptr %_M_len, align 8
  ret i64 %0
}

; Function Attrs: mustprogress nounwind uwtable
define linkonce_odr dso_local noundef ptr @_ZNKSt16initializer_listIjE3endEv(ptr noundef nonnull align 8 dereferenceable(16) %this) #1 comdat align 2 {
entry:
  %this.addr = alloca ptr, align 8
  store ptr %this, ptr %this.addr, align 8
  %this1 = load ptr, ptr %this.addr, align 8
  %call = call noundef ptr @_ZNKSt16initializer_listIjE5beginEv(ptr noundef nonnull align 8 dereferenceable(16) %this1) #19
  %call2 = call noundef i64 @_ZNKSt16initializer_listIjE4sizeEv(ptr noundef nonnull align 8 dereferenceable(16) %this1) #19
  %add.ptr = getelementptr inbounds i32, ptr %call, i64 %call2
  ret ptr %add.ptr
}

; Function Attrs: mustprogress nounwind uwtable
define linkonce_odr dso_local noundef ptr @_ZNKSt16initializer_listIjE5beginEv(ptr noundef nonnull align 8 dereferenceable(16) %this) #1 comdat align 2 {
entry:
  %this.addr = alloca ptr, align 8
  store ptr %this, ptr %this.addr, align 8
  %this1 = load ptr, ptr %this.addr, align 8
  %_M_array = getelementptr inbounds %"class.std::initializer_list.61", ptr %this1, i32 0, i32 0
  %0 = load ptr, ptr %_M_array, align 8
  ret ptr %0
}

; Function Attrs: mustprogress uwtable
define internal noundef i32 @_ZN8nlohmann16json_abi_v3_11_36detail5lexerINS0_10basic_jsonISt3mapSt6vectorNSt7__cxx1112basic_stringIcSt11char_traitsIcESaIcEEEblmdSaNS0_14adl_serializerES5_IhSaIhEEvEENS1_22iterator_input_adapterIZN12_GLOBAL__N_119DOCTEST_ANON_FUNC_8EvE10MyIteratorEEE13get_codepointEv(ptr noundef nonnull align 8 dereferenceable(148) %this) #4 align 2 {
entry:
  %retval = alloca i32, align 4
  %this.addr = alloca ptr, align 8
  %codepoint = alloca i32, align 4
  %factors = alloca %"class.std::initializer_list.61", align 8
  %ref.tmp = alloca [4 x i32], align 4
  %__range3 = alloca ptr, align 8
  %__begin3 = alloca ptr, align 8
  %__end3 = alloca ptr, align 8
  %factor = alloca i32, align 4
  store ptr %this, ptr %this.addr, align 8
  %this1 = load ptr, ptr %this.addr, align 8
  store i32 0, ptr %codepoint, align 4
  %arrayinit.begin = getelementptr inbounds [4 x i32], ptr %ref.tmp, i64 0, i64 0
  store i32 12, ptr %arrayinit.begin, align 4
  %arrayinit.element = getelementptr inbounds i32, ptr %arrayinit.begin, i64 1
  store i32 8, ptr %arrayinit.element, align 4
  %arrayinit.element2 = getelementptr inbounds i32, ptr %arrayinit.element, i64 1
  store i32 4, ptr %arrayinit.element2, align 4
  %arrayinit.element3 = getelementptr inbounds i32, ptr %arrayinit.element2, i64 1
  store i32 0, ptr %arrayinit.element3, align 4
  %_M_array = getelementptr inbounds %"class.std::initializer_list.61", ptr %factors, i32 0, i32 0
  %arraystart = getelementptr inbounds [4 x i32], ptr %ref.tmp, i64 0, i64 0
  store ptr %arraystart, ptr %_M_array, align 8
  %_M_len = getelementptr inbounds %"class.std::initializer_list.61", ptr %factors, i32 0, i32 1
  store i64 4, ptr %_M_len, align 8
  store ptr %factors, ptr %__range3, align 8
  %0 = load ptr, ptr %__range3, align 8
  %call = call noundef ptr @_ZNKSt16initializer_listIjE5beginEv(ptr noundef nonnull align 8 dereferenceable(16) %0) #19
  store ptr %call, ptr %__begin3, align 8
  %1 = load ptr, ptr %__range3, align 8
  %call4 = call noundef ptr @_ZNKSt16initializer_listIjE3endEv(ptr noundef nonnull align 8 dereferenceable(16) %1) #19
  store ptr %call4, ptr %__end3, align 8
  br label %for.cond

for.cond:                                         ; preds = %for.inc, %entry
  %2 = load ptr, ptr %__begin3, align 8
  %3 = load ptr, ptr %__end3, align 8
  %cmp = icmp ne ptr %2, %3
  br i1 %cmp, label %for.body, label %for.end

for.body:                                         ; preds = %for.cond
  %4 = load ptr, ptr %__begin3, align 8
  %5 = load i32, ptr %4, align 4
  store i32 %5, ptr %factor, align 4
  %call5 = call noundef i32 @_ZN8nlohmann16json_abi_v3_11_36detail5lexerINS0_10basic_jsonISt3mapSt6vectorNSt7__cxx1112basic_stringIcSt11char_traitsIcESaIcEEEblmdSaNS0_14adl_serializerES5_IhSaIhEEvEENS1_22iterator_input_adapterIZN12_GLOBAL__N_119DOCTEST_ANON_FUNC_8EvE10MyIteratorEEE3getEv(ptr noundef nonnull align 8 dereferenceable(148) %this1)
  %current = getelementptr inbounds %"class.nlohmann::json_abi_v3_11_3::detail::lexer.151", ptr %this1, i32 0, i32 3
  %6 = load i32, ptr %current, align 4
  %cmp6 = icmp sge i32 %6, 48
  br i1 %cmp6, label %land.lhs.true, label %if.else

land.lhs.true:                                    ; preds = %for.body
  %current7 = getelementptr inbounds %"class.nlohmann::json_abi_v3_11_3::detail::lexer.151", ptr %this1, i32 0, i32 3
  %7 = load i32, ptr %current7, align 4
  %cmp8 = icmp sle i32 %7, 57
  br i1 %cmp8, label %if.then, label %if.else

if.then:                                          ; preds = %land.lhs.true
  %current9 = getelementptr inbounds %"class.nlohmann::json_abi_v3_11_3::detail::lexer.151", ptr %this1, i32 0, i32 3
  %8 = load i32, ptr %current9, align 4
  %sub = sub i32 %8, 48
  %9 = load i32, ptr %factor, align 4
  %shl = shl i32 %sub, %9
  %10 = load i32, ptr %codepoint, align 4
  %add = add nsw i32 %10, %shl
  store i32 %add, ptr %codepoint, align 4
  br label %if.end33

if.else:                                          ; preds = %land.lhs.true, %for.body
  %current10 = getelementptr inbounds %"class.nlohmann::json_abi_v3_11_3::detail::lexer.151", ptr %this1, i32 0, i32 3
  %11 = load i32, ptr %current10, align 4
  %cmp11 = icmp sge i32 %11, 65
  br i1 %cmp11, label %land.lhs.true12, label %if.else20

land.lhs.true12:                                  ; preds = %if.else
  %current13 = getelementptr inbounds %"class.nlohmann::json_abi_v3_11_3::detail::lexer.151", ptr %this1, i32 0, i32 3
  %12 = load i32, ptr %current13, align 4
  %cmp14 = icmp sle i32 %12, 70
  br i1 %cmp14, label %if.then15, label %if.else20

if.then15:                                        ; preds = %land.lhs.true12
  %current16 = getelementptr inbounds %"class.nlohmann::json_abi_v3_11_3::detail::lexer.151", ptr %this1, i32 0, i32 3
  %13 = load i32, ptr %current16, align 4
  %sub17 = sub i32 %13, 55
  %14 = load i32, ptr %factor, align 4
  %shl18 = shl i32 %sub17, %14
  %15 = load i32, ptr %codepoint, align 4
  %add19 = add nsw i32 %15, %shl18
  store i32 %add19, ptr %codepoint, align 4
  br label %if.end32

if.else20:                                        ; preds = %land.lhs.true12, %if.else
  %current21 = getelementptr inbounds %"class.nlohmann::json_abi_v3_11_3::detail::lexer.151", ptr %this1, i32 0, i32 3
  %16 = load i32, ptr %current21, align 4
  %cmp22 = icmp sge i32 %16, 97
  br i1 %cmp22, label %land.lhs.true23, label %if.else31

land.lhs.true23:                                  ; preds = %if.else20
  %current24 = getelementptr inbounds %"class.nlohmann::json_abi_v3_11_3::detail::lexer.151", ptr %this1, i32 0, i32 3
  %17 = load i32, ptr %current24, align 4
  %cmp25 = icmp sle i32 %17, 102
  br i1 %cmp25, label %if.then26, label %if.else31

if.then26:                                        ; preds = %land.lhs.true23
  %current27 = getelementptr inbounds %"class.nlohmann::json_abi_v3_11_3::detail::lexer.151", ptr %this1, i32 0, i32 3
  %18 = load i32, ptr %current27, align 4
  %sub28 = sub i32 %18, 87
  %19 = load i32, ptr %factor, align 4
  %shl29 = shl i32 %sub28, %19
  %20 = load i32, ptr %codepoint, align 4
  %add30 = add nsw i32 %20, %shl29
  store i32 %add30, ptr %codepoint, align 4
  br label %if.end

if.else31:                                        ; preds = %land.lhs.true23, %if.else20
  store i32 -1, ptr %retval, align 4
  br label %return

if.end:                                           ; preds = %if.then26
  br label %if.end32

if.end32:                                         ; preds = %if.end, %if.then15
  br label %if.end33

if.end33:                                         ; preds = %if.end32, %if.then
  br label %for.inc

for.inc:                                          ; preds = %if.end33
  %21 = load ptr, ptr %__begin3, align 8
  %incdec.ptr = getelementptr inbounds i32, ptr %21, i32 1
  store ptr %incdec.ptr, ptr %__begin3, align 8
  br label %for.cond

for.end:                                          ; preds = %for.cond
  %22 = load i32, ptr %codepoint, align 4
  store i32 %22, ptr %retval, align 4
  br label %return

return:                                           ; preds = %for.end, %if.else31
  %23 = load i32, ptr %retval, align 4
  ret i32 %23
}