; Function Attrs: mustprogress uwtable
define internal fastcc noundef i32 @_ZN8nlohmann16json_abi_v3_11_36detail5lexerINS0_10basic_jsonISt3mapSt6vectorNSt7__cxx1112basic_stringIcSt11char_traitsIcESaIcEEEblmdSaNS0_14adl_serializerES5_IhSaIhEEvEENS1_22iterator_input_adapterIZN12_GLOBAL__N_119DOCTEST_ANON_FUNC_8EvE10MyIteratorEEE13get_codepointEv(ptr nocapture noundef nonnull align 8 dereferenceable(148) %this) unnamed_addr #2 align 2 {
entry:
  %ref.tmp = alloca [4 x i32], align 16
  store <4 x i32> <i32 12, i32 8, i32 4, i32 0>, ptr %ref.tmp, align 16
  %current = getelementptr inbounds i8, ptr %this, i64 20
  br label %for.body

for.body:                                         ; preds = %entry, %for.inc
  %codepoint.015 = phi i32 [ 0, %entry ], [ %codepoint.1, %for.inc ]
  %__begin3.0.idx14 = phi i64 [ 0, %entry ], [ %__begin3.0.add, %for.inc ]
  %__begin3.0.ptr = getelementptr inbounds i8, ptr %ref.tmp, i64 %__begin3.0.idx14
  %0 = load i32, ptr %__begin3.0.ptr, align 4
  %call5 = tail call fastcc noundef i32 @_ZN8nlohmann16json_abi_v3_11_36detail5lexerINS0_10basic_jsonISt3mapSt6vectorNSt7__cxx1112basic_stringIcSt11char_traitsIcESaIcEEEblmdSaNS0_14adl_serializerES5_IhSaIhEEvEENS1_22iterator_input_adapterIZN12_GLOBAL__N_119DOCTEST_ANON_FUNC_8EvE10MyIteratorEEE3getEv(ptr noundef nonnull align 8 dereferenceable(148) %this)
  %1 = load i32, ptr %current, align 4
  %2 = add i32 %1, -48
  %or.cond = icmp ult i32 %2, 10
  br i1 %or.cond, label %for.inc, label %if.else

if.else:                                          ; preds = %for.body
  %3 = add i32 %1, -65
  %or.cond11 = icmp ult i32 %3, 6
  br i1 %or.cond11, label %if.then15, label %if.else20

if.then15:                                        ; preds = %if.else
  %sub17 = add nsw i32 %1, -55
  br label %for.inc

if.else20:                                        ; preds = %if.else
  %4 = add i32 %1, -97
  %or.cond12 = icmp ult i32 %4, 6
  br i1 %or.cond12, label %if.then26, label %return

if.then26:                                        ; preds = %if.else20
  %sub28 = add nsw i32 %1, -87
  br label %for.inc

for.inc:                                          ; preds = %for.body, %if.then26, %if.then15
  %sub.pn = phi i32 [ %sub17, %if.then15 ], [ %sub28, %if.then26 ], [ %2, %for.body ]
  %shl.pn = shl i32 %sub.pn, %0
  %codepoint.1 = add nsw i32 %shl.pn, %codepoint.015
  %__begin3.0.add = add nuw nsw i64 %__begin3.0.idx14, 4
  %cmp.not = icmp eq i64 %__begin3.0.add, 16
  br i1 %cmp.not, label %return, label %for.body

return:                                           ; preds = %for.inc, %if.else20
  %retval.0 = phi i32 [ -1, %if.else20 ], [ %codepoint.1, %for.inc ]
  ret i32 %retval.0
}